; Function Attrs: mustprogress uwtable
define hidden void @_ZN4cvc58internal6theory24CarePairArgumentCallback11processDataENS0_12NodeTemplateILb0EEES4_(ptr nocapture noundef nonnull readonly align 8 dereferenceable(16) %this, ptr nocapture noundef readonly %fa, ptr nocapture noundef readonly %fb) unnamed_addr #4 align 2 personality ptr @__gxx_personality_v0 {
entry:
  %agg.tmp = alloca %"class.cvc5::internal::NodeTemplate", align 8
  %agg.tmp2 = alloca %"class.cvc5::internal::NodeTemplate", align 8
  %d_theory = getelementptr inbounds i8, ptr %this, i64 8
  %0 = load ptr, ptr %d_theory, align 8
  %1 = load ptr, ptr %fa, align 8
  store ptr %1, ptr %agg.tmp, align 8
  %2 = load ptr, ptr %fb, align 8
  store ptr %2, ptr %agg.tmp2, align 8
  %vtable = load ptr, ptr %0, align 8
  %vfn = getelementptr inbounds i8, ptr %vtable, i64 16
  %3 = load ptr, ptr %vfn, align 8
  call void %3(ptr noundef nonnull align 8 dereferenceable(408) %0, ptr noundef nonnull %agg.tmp, ptr noundef nonnull %agg.tmp2)
  ret void
}